target datalayout = "e-m:e-p270:32:32-p271:32:32-p272:64:64-i64:64-i128:128-f80:128-n8:16:32:64-S128"
target triple = "x86_64-pc-linux-gnu"

%struct.SurfaceDataRasInfo = type { %struct.SurfaceDataBounds, ptr, i32, i32, i32, i32, ptr, ptr, ptr, ptr, ptr, ptr, i32, %union.anon.0 }
%struct.SurfaceDataBounds = type { i32, i32, i32, i32 }
%union.anon.0 = type { ptr, [56 x i8] }

; Function Attrs: nounwind uwtable
define hidden void @IntArgbToByteBinary2BitConvert(ptr noundef %0, ptr noundef %1, i32 noundef %2, i32 noundef %3, ptr noundef %4, ptr noundef %5, ptr noundef %6, ptr noundef %7) #0 {
  %9 = alloca ptr, align 8
  %10 = alloca ptr, align 8
  %11 = alloca i32, align 4
  %12 = alloca i32, align 4
  %13 = alloca ptr, align 8
  %14 = alloca ptr, align 8
  %15 = alloca ptr, align 8
  %16 = alloca ptr, align 8
  %17 = alloca ptr, align 8
  %18 = alloca ptr, align 8
  %19 = alloca ptr, align 8
  %20 = alloca i32, align 4
  %21 = alloca i32, align 4
  %22 = alloca i32, align 4
  %23 = alloca i32, align 4
  %24 = alloca i32, align 4
  %25 = alloca i32, align 4
  %26 = alloca i32, align 4
  %27 = alloca i32, align 4
  %28 = alloca i32, align 4
  %29 = alloca i32, align 4
  %30 = alloca i32, align 4
  %31 = alloca i32, align 4
  %32 = alloca i32, align 4
  store ptr %0, ptr %9, align 8
  store ptr %1, ptr %10, align 8
  store i32 %2, ptr %11, align 4
  store i32 %3, ptr %12, align 4
  store ptr %4, ptr %13, align 8
  store ptr %5, ptr %14, align 8
  store ptr %6, ptr %15, align 8
  store ptr %7, ptr %16, align 8
  br label %33

33:                                               ; preds = %8
  %34 = load ptr, ptr %9, align 8
  store ptr %34, ptr %18, align 8
  %35 = load ptr, ptr %10, align 8
  store ptr %35, ptr %19, align 8
  %36 = load ptr, ptr %13, align 8
  %37 = getelementptr inbounds %struct.SurfaceDataRasInfo, ptr %36, i32 0, i32 4
  %38 = load i32, ptr %37, align 8
  store i32 %38, ptr %20, align 4
  %39 = load ptr, ptr %14, align 8
  %40 = getelementptr inbounds %struct.SurfaceDataRasInfo, ptr %39, i32 0, i32 4
  %41 = load i32, ptr %40, align 8
  store i32 %41, ptr %21, align 4
  %42 = load ptr, ptr %13, align 8
  %43 = getelementptr inbounds %struct.SurfaceDataRasInfo, ptr %42, i32 0, i32 0
  %44 = getelementptr inbounds %struct.SurfaceDataBounds, ptr %43, i32 0, i32 0
  %45 = load i32, ptr %44, align 8
  store i32 %45, ptr %22, align 4
  %46 = load ptr, ptr %14, align 8
  %47 = getelementptr inbounds %struct.SurfaceDataRasInfo, ptr %46, i32 0, i32 0
  %48 = getelementptr inbounds %struct.SurfaceDataBounds, ptr %47, i32 0, i32 0
  %49 = load i32, ptr %48, align 8
  store i32 %49, ptr %23, align 4
  %50 = load ptr, ptr %14, align 8
  %51 = getelementptr inbounds %struct.SurfaceDataRasInfo, ptr %50, i32 0, i32 7
  %52 = load ptr, ptr %51, align 8
  store ptr %52, ptr %17, align 8
  %53 = load i32, ptr %11, align 4
  %54 = mul i32 %53, 4
  %55 = load i32, ptr %20, align 4
  %56 = sub i32 %55, %54
  store i32 %56, ptr %20, align 4
  %57 = load i32, ptr %11, align 4
  %58 = mul i32 %57, 0
  %59 = load i32, ptr %21, align 4
  %60 = sub i32 %59, %58
  store i32 %60, ptr %21, align 4
  br label %61

61:                                               ; preds = %183, %33
  %62 = load i32, ptr %23, align 4
  %63 = load ptr, ptr %14, align 8
  %64 = getelementptr inbounds %struct.SurfaceDataRasInfo, ptr %63, i32 0, i32 2
  %65 = load i32, ptr %64, align 8
  %66 = sdiv i32 %65, 2
  %67 = add nsw i32 %62, %66
  store i32 %67, ptr %24, align 4
  %68 = load i32, ptr %24, align 4
  %69 = sdiv i32 %68, 4
  store i32 %69, ptr %25, align 4
  %70 = load i32, ptr %24, align 4
  %71 = srem i32 %70, 4
  %72 = mul nsw i32 %71, 2
  %73 = sub nsw i32 6, %72
  store i32 %73, ptr %26, align 4
  %74 = load ptr, ptr %19, align 8
  %75 = load i32, ptr %25, align 4
  %76 = sext i32 %75 to i64
  %77 = getelementptr inbounds i8, ptr %74, i64 %76
  %78 = load i8, ptr %77, align 1
  %79 = zext i8 %78 to i32
  store i32 %79, ptr %27, align 4
  %80 = load i32, ptr %11, align 4
  store i32 %80, ptr %28, align 4
  br label %81

81:                                               ; preds = %160, %61
  br label %82

82:                                               ; preds = %81
  %83 = load i32, ptr %26, align 4
  %84 = icmp slt i32 %83, 0
  br i1 %84, label %85, label %99

85:                                               ; preds = %82
  %86 = load i32, ptr %27, align 4
  %87 = trunc i32 %86 to i8
  %88 = load ptr, ptr %19, align 8
  %89 = load i32, ptr %25, align 4
  %90 = sext i32 %89 to i64
  %91 = getelementptr inbounds i8, ptr %88, i64 %90
  store i8 %87, ptr %91, align 1
  %92 = load ptr, ptr %19, align 8
  %93 = load i32, ptr %25, align 4
  %94 = add nsw i32 %93, 1
  store i32 %94, ptr %25, align 4
  %95 = sext i32 %94 to i64
  %96 = getelementptr inbounds i8, ptr %92, i64 %95
  %97 = load i8, ptr %96, align 1
  %98 = zext i8 %97 to i32
  store i32 %98, ptr %27, align 4
  store i32 6, ptr %26, align 4
  br label %99

99:                                               ; preds = %85, %82
  br label %100

100:                                              ; preds = %99
  br label %101

101:                                              ; preds = %100
  %102 = load ptr, ptr %18, align 8
  %103 = getelementptr inbounds i32, ptr %102, i64 0
  %104 = load i32, ptr %103, align 4
  store i32 %104, ptr %29, align 4
  br label %105

105:                                              ; preds = %101
  br label %106

106:                                              ; preds = %105
  %107 = load i32, ptr %29, align 4
  %108 = and i32 %107, 255
  store i32 %108, ptr %32, align 4
  %109 = load i32, ptr %29, align 4
  %110 = ashr i32 %109, 8
  %111 = and i32 %110, 255
  store i32 %111, ptr %31, align 4
  %112 = load i32, ptr %29, align 4
  %113 = ashr i32 %112, 16
  %114 = and i32 %113, 255
  store i32 %114, ptr %30, align 4
  br label %115

115:                                              ; preds = %106
  br label %116

116:                                              ; preds = %115
  %117 = load i32, ptr %26, align 4
  %118 = shl i32 3, %117
  %119 = xor i32 %118, -1
  %120 = load i32, ptr %27, align 4
  %121 = and i32 %120, %119
  store i32 %121, ptr %27, align 4
  %122 = load ptr, ptr %17, align 8
  %123 = load i32, ptr %30, align 4
  %124 = trunc i32 %123 to i8
  %125 = zext i8 %124 to i32
  %126 = ashr i32 %125, 3
  %127 = shl i32 %126, 10
  %128 = load i32, ptr %31, align 4
  %129 = trunc i32 %128 to i8
  %130 = zext i8 %129 to i32
  %131 = ashr i32 %130, 3
  %132 = shl i32 %131, 5
  %133 = add nsw i32 %127, %132
  %134 = load i32, ptr %32, align 4
  %135 = trunc i32 %134 to i8
  %136 = zext i8 %135 to i32
  %137 = ashr i32 %136, 3
  %138 = add nsw i32 %133, %137
  %139 = sext i32 %138 to i64
  %140 = getelementptr inbounds i8, ptr %122, i64 %139
  %141 = load i8, ptr %140, align 1
  %142 = zext i8 %141 to i32
  %143 = load i32, ptr %26, align 4
  %144 = shl i32 %142, %143
  %145 = load i32, ptr %27, align 4
  %146 = or i32 %145, %144
  store i32 %146, ptr %27, align 4
  br label %147

147:                                              ; preds = %116
  br label %148

148:                                              ; preds = %147
  br label %149

149:                                              ; preds = %148
  %150 = load i32, ptr %26, align 4
  %151 = sub nsw i32 %150, 2
  store i32 %151, ptr %26, align 4
  %152 = load ptr, ptr %18, align 8
  %153 = ptrtoint ptr %152 to i64
  %154 = add nsw i64 %153, 4
  %155 = inttoptr i64 %154 to ptr
  store ptr %155, ptr %18, align 8
  %156 = load ptr, ptr %19, align 8
  %157 = ptrtoint ptr %156 to i64
  %158 = add nsw i64 %157, 0
  %159 = inttoptr i64 %158 to ptr
  store ptr %159, ptr %19, align 8
  br label %160

160:                                              ; preds = %149
  %161 = load i32, ptr %28, align 4
  %162 = add i32 %161, -1
  store i32 %162, ptr %28, align 4
  %163 = icmp ugt i32 %162, 0
  br i1 %163, label %81, label %164, !llvm.loop !34

164:                                              ; preds = %160
  %165 = load i32, ptr %27, align 4
  %166 = trunc i32 %165 to i8
  %167 = load ptr, ptr %19, align 8
  %168 = load i32, ptr %25, align 4
  %169 = sext i32 %168 to i64
  %170 = getelementptr inbounds i8, ptr %167, i64 %169
  store i8 %166, ptr %170, align 1
  %171 = load ptr, ptr %18, align 8
  %172 = ptrtoint ptr %171 to i64
  %173 = load i32, ptr %20, align 4
  %174 = sext i32 %173 to i64
  %175 = add nsw i64 %172, %174
  %176 = inttoptr i64 %175 to ptr
  store ptr %176, ptr %18, align 8
  %177 = load ptr, ptr %19, align 8
  %178 = ptrtoint ptr %177 to i64
  %179 = load i32, ptr %21, align 4
  %180 = sext i32 %179 to i64
  %181 = add nsw i64 %178, %180
  %182 = inttoptr i64 %181 to ptr
  store ptr %182, ptr %19, align 8
  br label %183

183:                                              ; preds = %164
  %184 = load i32, ptr %12, align 4
  %185 = add i32 %184, -1
  store i32 %185, ptr %12, align 4
  %186 = icmp ugt i32 %185, 0
  br i1 %186, label %61, label %187, !llvm.loop !35

187:                                              ; preds = %183
  br label %188

188:                                              ; preds = %187
  ret void
}